; Function Attrs: mustprogress uwtable
define void @uprv_getStaticCurrencyName_77(ptr noundef %0, ptr noundef %1, ptr noundef nonnull align 8 dereferenceable(64) %2, ptr noundef nonnull align 4 captures(none) dereferenceable(4) %3) local_unnamed_addr #1 {
  %5 = alloca i32, align 4
  call void @llvm.lifetime.start.p0(i64 4, ptr nonnull %5) #20
  %6 = call ptr @ucurr_getName_77(ptr noundef %0, ptr noundef %1, i32 noundef 0, ptr noundef null, ptr noundef nonnull %5, ptr noundef nonnull %3)
  %7 = load i32, ptr %3, align 4, !tbaa !13
  %8 = icmp sgt i32 %7, 0
  br i1 %8, label %20, label %9

9:                                                ; preds = %4
  %10 = load i32, ptr %5, align 4, !tbaa !12
  call void @_ZN6icu_7713UnicodeString7unBogusEv(ptr noundef nonnull align 8 dereferenceable(64) %2)
  %11 = getelementptr inbounds nuw i8, ptr %2, i64 8
  %12 = load i16, ptr %11, align 8, !tbaa !27
  %13 = icmp slt i16 %12, 0
  %14 = ashr i16 %12, 5
  %15 = sext i16 %14 to i32
  %16 = getelementptr inbounds nuw i8, ptr %2, i64 12
  %17 = load i32, ptr %16, align 4
  %18 = select i1 %13, i32 %17, i32 %15
  %19 = call noundef nonnull align 8 dereferenceable(64) ptr @_ZN6icu_7713UnicodeString9doReplaceEiiPKDsii(ptr noundef nonnull align 8 dereferenceable(64) %2, i32 noundef 0, i32 noundef %18, ptr noundef %6, i32 noundef 0, i32 noundef %10)
  br label %20

20:                                               ; preds = %9, %4
  call void @llvm.lifetime.end.p0(i64 4, ptr nonnull %5) #20
  ret void
}